; Function Attrs: nounwind uwtable
define void @Abc_NtkDontCareWinCollectRoots(ptr noundef readonly captures(none) %0) local_unnamed_addr #0 {
  %2 = getelementptr inbounds nuw i8, ptr %0, i64 24
  %3 = load ptr, ptr %2, align 8, !tbaa !98
  %.val = load ptr, ptr %3, align 8, !tbaa !78
  %4 = getelementptr i8, ptr %3, i64 16
  %.val4 = load i32, ptr %4, align 8, !tbaa !81
  %5 = getelementptr inbounds nuw i8, ptr %.val, i64 216
  %6 = load i32, ptr %5, align 8, !tbaa !82
  %7 = getelementptr inbounds nuw i8, ptr %.val, i64 224
  %8 = add nsw i32 %.val4, 1
  %9 = getelementptr inbounds nuw i8, ptr %.val, i64 228
  %10 = load i32, ptr %9, align 4, !tbaa !37
  %.not.i.not.i.i.i = icmp slt i32 %.val4, %10
  br i1 %.not.i.not.i.i.i, label %Abc_NodeSetTravIdCurrent.exit, label %11

11:                                               ; preds = %1
  %12 = load i32, ptr %7, align 8, !tbaa !39
  %13 = shl nsw i32 %12, 1
  %.not.i.i.i = icmp slt i32 %.val4, %13
  %.not.i.i.not.i.i.i = icmp sgt i32 %12, %.val4
  br i1 %.not.i.i.i, label %26, label %14

14:                                               ; preds = %11
  br i1 %.not.i.i.not.i.i.i, label %Vec_IntGrow.exit.i.i.i.i, label %15

15:                                               ; preds = %14
  %16 = getelementptr inbounds nuw i8, ptr %.val, i64 232
  %17 = load ptr, ptr %16, align 8, !tbaa !40
  %.not9.i.i.i.i.i = icmp eq ptr %17, null
  %18 = sext i32 %8 to i64
  %19 = shl nsw i64 %18, 2
  br i1 %.not9.i.i.i.i.i, label %22, label %20

20:                                               ; preds = %15
  %21 = tail call ptr @realloc(ptr noundef nonnull %17, i64 noundef %19) #22
  br label %24

22:                                               ; preds = %15
  %23 = tail call noalias ptr @malloc(i64 noundef %19) #20
  br label %24

24:                                               ; preds = %22, %20
  %25 = phi ptr [ %21, %20 ], [ %23, %22 ]
  store ptr %25, ptr %16, align 8, !tbaa !40
  br label %Vec_IntGrow.exit.sink.split.i.i.i.i

26:                                               ; preds = %11
  br i1 %.not.i.i.not.i.i.i, label %Vec_IntGrow.exit.i.i.i.i, label %27

27:                                               ; preds = %26
  %28 = getelementptr inbounds nuw i8, ptr %.val, i64 232
  %29 = load ptr, ptr %28, align 8, !tbaa !40
  %.not9.i21.i.i.i.i = icmp eq ptr %29, null
  %30 = sext i32 %13 to i64
  %31 = shl nsw i64 %30, 2
  br i1 %.not9.i21.i.i.i.i, label %34, label %32

32:                                               ; preds = %27
  %33 = tail call ptr @realloc(ptr noundef nonnull %29, i64 noundef %31) #22
  br label %36

34:                                               ; preds = %27
  %35 = tail call noalias ptr @malloc(i64 noundef %31) #20
  br label %36

36:                                               ; preds = %34, %32
  %37 = phi ptr [ %33, %32 ], [ %35, %34 ]
  store ptr %37, ptr %28, align 8, !tbaa !40
  br label %Vec_IntGrow.exit.sink.split.i.i.i.i

Vec_IntGrow.exit.sink.split.i.i.i.i:              ; preds = %36, %24
  %.sink.i.i.i.i = phi i32 [ %13, %36 ], [ %8, %24 ]
  store i32 %.sink.i.i.i.i, ptr %7, align 8, !tbaa !39
  %.pre.i.i.i = load i32, ptr %9, align 4, !tbaa !37
  br label %Vec_IntGrow.exit.i.i.i.i

Vec_IntGrow.exit.i.i.i.i:                         ; preds = %Vec_IntGrow.exit.sink.split.i.i.i.i, %26, %14
  %38 = phi i32 [ %.pre.i.i.i, %Vec_IntGrow.exit.sink.split.i.i.i.i ], [ %10, %26 ], [ %10, %14 ]
  %.not4.i.i.i = icmp sgt i32 %38, %.val4
  br i1 %.not4.i.i.i, label %._crit_edge.i.i.i.i, label %.lr.ph.i.i.i.i

.lr.ph.i.i.i.i:                                   ; preds = %Vec_IntGrow.exit.i.i.i.i
  %39 = getelementptr inbounds nuw i8, ptr %.val, i64 232
  %40 = load ptr, ptr %39, align 8, !tbaa !40
  %41 = sext i32 %38 to i64
  %42 = shl nsw i64 %41, 2
  %scevgep.i.i.i.i = getelementptr i8, ptr %40, i64 %42
  %43 = sub i32 %.val4, %38
  %44 = zext i32 %43 to i64
  %45 = shl nuw nsw i64 %44, 2
  %46 = add nuw nsw i64 %45, 4
  tail call void @llvm.memset.p0.i64(ptr noundef nonnull align 4 dereferenceable(1) %scevgep.i.i.i.i, i8 0, i64 %46, i1 false), !tbaa !48
  br label %._crit_edge.i.i.i.i

._crit_edge.i.i.i.i:                              ; preds = %.lr.ph.i.i.i.i, %Vec_IntGrow.exit.i.i.i.i
  store i32 %8, ptr %9, align 4, !tbaa !37
  %.pre = load ptr, ptr %2, align 8, !tbaa !98
  br label %Abc_NodeSetTravIdCurrent.exit

Abc_NodeSetTravIdCurrent.exit:                    ; preds = %1, %._crit_edge.i.i.i.i
  %47 = phi ptr [ %3, %1 ], [ %.pre, %._crit_edge.i.i.i.i ]
  %48 = getelementptr i8, ptr %.val, i64 232
  %.val.i.i.i = load ptr, ptr %48, align 8, !tbaa !40
  %49 = sext i32 %.val4 to i64
  %50 = getelementptr inbounds i32, ptr %.val.i.i.i, i64 %49
  store i32 %6, ptr %50, align 4, !tbaa !48
  %51 = getelementptr inbounds nuw i8, ptr %0, i64 40
  %52 = load ptr, ptr %51, align 8, !tbaa !25
  %53 = getelementptr inbounds nuw i8, ptr %52, i64 4
  store i32 0, ptr %53, align 4, !tbaa !21
  tail call void @Abc_NtkDontCareWinCollectRoots_rec(ptr noundef %47, ptr noundef %52)
  ret void
}